target datalayout = "e-m:e-p270:32:32-p271:32:32-p272:64:64-i64:64-i128:128-f80:128-n8:16:32:64-S128"
target triple = "x86_64-unknown-linux-gnu"

%class.symbol = type { ptr }
%class.ast_manager = type { %class.reslimit, %class.small_object_allocator, %class.family_manager, %class.parray_manager, %class.dependency_manager, %class.parray_manager.10, %class.ptr_vector.13, i32, i8, %class.ast_table, %class.obj_map, %class.id_gen, %class.id_gen, ptr, ptr, ptr, ptr, ptr, i32, i8, [3 x i8], %class.u_map, ptr, i8, i8, ptr, %class.symbol, %class.obj_map.21, ptr }
%class.reslimit = type { %"struct.std::atomic", i8, i64, i64, %class.svector, %class.ptr_vector }
%"struct.std::atomic" = type { %"struct.std::__atomic_base" }
%"struct.std::__atomic_base" = type { i32 }
%class.svector = type { %class.vector }
%class.vector = type { ptr }
%class.ptr_vector = type { %class.vector.0 }
%class.vector.0 = type { ptr }
%class.small_object_allocator = type { [32 x ptr], [32 x ptr], i64 }
%class.family_manager = type { i32, %class.symbol_table, %class.svector.4 }
%class.symbol_table = type { %class.core_hashtable, %class.vector.1, %class.svector.2 }
%class.core_hashtable = type <{ ptr, i32, i32, i32, [4 x i8] }>
%class.vector.1 = type { ptr }
%class.svector.2 = type { %class.vector.3 }
%class.vector.3 = type { ptr }
%class.svector.4 = type { %class.vector.5 }
%class.vector.5 = type { ptr }
%class.parray_manager = type { ptr, ptr, %class.ptr_vector.6, %class.ptr_vector.6 }
%class.ptr_vector.6 = type { %class.vector.7 }
%class.vector.7 = type { ptr }
%class.dependency_manager = type { ptr, ptr, %class.ptr_vector.8 }
%class.ptr_vector.8 = type { %class.vector.9 }
%class.vector.9 = type { ptr }
%class.parray_manager.10 = type { ptr, ptr, %class.ptr_vector.11, %class.ptr_vector.11 }
%class.ptr_vector.11 = type { %class.vector.12 }
%class.vector.12 = type { ptr }
%class.ptr_vector.13 = type { %class.vector.14 }
%class.vector.14 = type { ptr }
%class.ast_table = type { %class.chashtable }
%class.chashtable = type { ptr, i32, i32, i32, i32, i32, i32, i32, ptr, ptr, ptr }
%class.obj_map = type { %class.core_hashtable.15 }
%class.core_hashtable.15 = type <{ ptr, i32, i32, i32, [4 x i8] }>
%class.id_gen = type { i32, %class.svector.17 }
%class.svector.17 = type { %class.vector.18 }
%class.vector.18 = type { ptr }
%class.u_map = type { %class.map }
%class.map = type { %class.table2map }
%class.table2map = type { %class.core_hashtable.19 }
%class.core_hashtable.19 = type <{ ptr, i32, i32, i32, [4 x i8] }>
%class.obj_map.21 = type { %class.core_hashtable.22 }
%class.core_hashtable.22 = type <{ ptr, i32, i32, i32, [4 x i8] }>
%class.array_util = type { %class.array_recognizers, ptr }
%class.array_recognizers = type { i32 }

@.str.74 = private unnamed_addr constant [6 x i8] c"array\00", align 1

; Function Attrs: mustprogress uwtable
define linkonce_odr hidden noundef i32 @_ZN11ast_manager12mk_family_idERK6symbol(ptr noundef nonnull align 8 dereferenceable(976) %this, ptr noundef nonnull align 8 dereferenceable(8) %s) #4 comdat align 2 {
entry:
  %this.addr = alloca ptr, align 8
  %s.addr = alloca ptr, align 8
  store ptr %this, ptr %this.addr, align 8
  store ptr %s, ptr %s.addr, align 8
  %this1 = load ptr, ptr %this.addr, align 8
  %m_family_manager = getelementptr inbounds %class.ast_manager, ptr %this1, i32 0, i32 2
  %0 = load ptr, ptr %s.addr, align 8
  %call = call noundef i32 @_ZN14family_manager12mk_family_idERK6symbol(ptr noundef nonnull align 8 dereferenceable(56) %m_family_manager, ptr noundef nonnull align 8 dereferenceable(8) %0)
  ret i32 %call
}

; Function Attrs: mustprogress nounwind uwtable
define linkonce_odr hidden void @_ZN17array_recognizersC2Ei(ptr noundef nonnull align 4 dereferenceable(4) %this, i32 noundef %fid) unnamed_addr #5 comdat align 2 {
entry:
  %this.addr = alloca ptr, align 8
  %fid.addr = alloca i32, align 4
  store ptr %this, ptr %this.addr, align 8
  store i32 %fid, ptr %fid.addr, align 4
  %this1 = load ptr, ptr %this.addr, align 8
  %m_fid = getelementptr inbounds %class.array_recognizers, ptr %this1, i32 0, i32 0
  %0 = load i32, ptr %fid.addr, align 4
  store i32 %0, ptr %m_fid, align 4
  ret void
}

; Function Attrs: mustprogress uwtable
define linkonce_odr hidden noundef i32 @_ZN11ast_manager12mk_family_idEPKc(ptr noundef nonnull align 8 dereferenceable(976) %this, ptr noundef %s) #4 comdat align 2 {
entry:
  %this.addr = alloca ptr, align 8
  %s.addr = alloca ptr, align 8
  %ref.tmp = alloca %class.symbol, align 8
  store ptr %this, ptr %this.addr, align 8
  store ptr %s, ptr %s.addr, align 8
  %this1 = load ptr, ptr %this.addr, align 8
  %0 = load ptr, ptr %s.addr, align 8
  call void @_ZN6symbolC1EPKc(ptr noundef nonnull align 8 dereferenceable(8) %ref.tmp, ptr noundef %0)
  %call = call noundef i32 @_ZN11ast_manager12mk_family_idERK6symbol(ptr noundef nonnull align 8 dereferenceable(976) %this1, ptr noundef nonnull align 8 dereferenceable(8) %ref.tmp)
  ret i32 %call
}

; Function Attrs: mustprogress uwtable
define hidden void @_ZN10array_utilC2ER11ast_manager(ptr noundef nonnull align 8 dereferenceable(16) %this, ptr noundef nonnull align 8 dereferenceable(976) %m) unnamed_addr #4 align 2 {
entry:
  %this.addr = alloca ptr, align 8
  %m.addr = alloca ptr, align 8
  store ptr %this, ptr %this.addr, align 8
  store ptr %m, ptr %m.addr, align 8
  %this1 = load ptr, ptr %this.addr, align 8
  %0 = load ptr, ptr %m.addr, align 8
  %call = call noundef i32 @_ZN11ast_manager12mk_family_idEPKc(ptr noundef nonnull align 8 dereferenceable(976) %0, ptr noundef @.str.74)
  call void @_ZN17array_recognizersC2Ei(ptr noundef nonnull align 4 dereferenceable(4) %this1, i32 noundef %call)
  %m_manager = getelementptr inbounds %class.array_util, ptr %this1, i32 0, i32 1
  %1 = load ptr, ptr %m.addr, align 8
  store ptr %1, ptr %m_manager, align 8
  ret void
}